; Function Attrs: nounwind uwtable
define ptr @l___private_Lean_Meta_Tactic_Grind_Arith_Cutsat_Search_0__Lean_Meta_Grind_Arith_Cutsat_findCase___lambda__1(ptr noundef readnone captures(none) %0, i8 noundef zeroext %1, ptr noundef %2, ptr noundef %3, ptr noundef %4, ptr noundef %5, ptr noundef %6, ptr noundef %7, ptr noundef %8, ptr noundef %9, ptr noundef %10, ptr noundef %11) local_unnamed_addr #1 {
  %13 = load ptr, ptr @l___private_Lean_Meta_Tactic_Grind_Arith_Cutsat_Search_0__Lean_Meta_Grind_Arith_Cutsat_findCase___lambda__1___closed__1, align 8, !tbaa !11
  %14 = load ptr, ptr @l_panic___at___private_Lean_Meta_Tactic_Grind_Arith_Cutsat_Search_0__Lean_Meta_Grind_Arith_Cutsat_findCase___spec__3___closed__2, align 8, !tbaa !11
  %15 = tail call ptr @lean_panic_fn(ptr noundef %14, ptr noundef %13) #6
  %16 = zext i8 %1 to i64
  %17 = shl nuw nsw i64 %16, 1
  %18 = or disjoint i64 %17, 1
  %19 = inttoptr i64 %18 to ptr
  %20 = tail call ptr @lean_apply_11(ptr noundef %15, ptr noundef nonnull %19, ptr noundef %2, ptr noundef %3, ptr noundef %4, ptr noundef %5, ptr noundef %6, ptr noundef %7, ptr noundef %8, ptr noundef %9, ptr noundef %10, ptr noundef %11) #6
  ret ptr %20
}